target datalayout = "e-m:e-p270:32:32-p271:32:32-p272:64:64-i64:64-i128:128-f80:128-n8:16:32:64-S128"
target triple = "x86_64-pc-linux-gnu"

%struct.RBasic = type { i64, i64 }
%struct.rb_shape = type { ptr, i64, i32, i32, i8, i8, i32, ptr }
%struct.RObject = type { %struct.RBasic, %union.anon.26 }
%union.anon.26 = type { %struct.anon.27 }
%struct.anon.27 = type { ptr }

; Function Attrs: inlinehint nounwind sspstrong uwtable
define internal i32 @get_shape_id_from_flags(i64 noundef %0) #6 {
  %2 = alloca i64, align 8
  store i64 %0, ptr %2, align 8, !tbaa !6
  %3 = load i64, ptr %2, align 8, !tbaa !6
  %4 = inttoptr i64 %3 to ptr
  %5 = getelementptr inbounds nuw %struct.RBasic, ptr %4, i32 0, i32 0
  %6 = load i64, ptr %5, align 8, !tbaa !67
  %7 = lshr i64 %6, 32
  %8 = and i64 4294967295, %7
  %9 = trunc i64 %8 to i32
  ret i32 %9
}

; Function Attrs: inlinehint nounwind sspstrong uwtable
define internal i32 @ROBJECT_SHAPE_ID(i64 noundef %0) #6 {
  %2 = alloca i64, align 8
  store i64 %0, ptr %2, align 8, !tbaa !6
  %3 = load i64, ptr %2, align 8, !tbaa !6
  %4 = call i32 @get_shape_id_from_flags(i64 noundef %3)
  ret i32 %4
}

; Function Attrs: inlinehint nounwind sspstrong uwtable
define internal ptr @ROBJECT_IV_HASH(i64 noundef %0) #6 {
  %2 = alloca i64, align 8
  store i64 %0, ptr %2, align 8, !tbaa !6
  %3 = load i64, ptr %2, align 8, !tbaa !6
  %4 = inttoptr i64 %3 to ptr
  %5 = getelementptr inbounds nuw %struct.RObject, ptr %4, i32 0, i32 1
  %6 = getelementptr inbounds nuw %struct.anon.27, ptr %5, i32 0, i32 0
  %7 = load ptr, ptr %6, align 8, !tbaa !84
  ret ptr %7
}

; Function Attrs: inlinehint nounwind sspstrong uwtable
define internal i32 @ROBJECT_IV_COUNT(i64 noundef %0) #6 {
  %2 = alloca i32, align 4
  %3 = alloca i64, align 8
  store i64 %0, ptr %3, align 8, !tbaa !6
  %4 = load i64, ptr %3, align 8, !tbaa !6
  %5 = call zeroext i1 @rb_shape_obj_too_complex(i64 noundef %4)
  br i1 %5, label %6, label %11

6:                                                ; preds = %1
  %7 = load i64, ptr %3, align 8, !tbaa !6
  %8 = call ptr @ROBJECT_IV_HASH(i64 noundef %7)
  %9 = call i64 @rb_st_table_size(ptr noundef %8)
  %10 = trunc i64 %9 to i32
  store i32 %10, ptr %2, align 4
  br label %17

11:                                               ; preds = %1
  %12 = load i64, ptr %3, align 8, !tbaa !6
  %13 = call i32 @ROBJECT_SHAPE_ID(i64 noundef %12)
  %14 = call ptr @rb_shape_get_shape_by_id(i32 noundef %13)
  %15 = getelementptr inbounds nuw %struct.rb_shape, ptr %14, i32 0, i32 2
  %16 = load i32, ptr %15, align 8, !tbaa !90
  store i32 %16, ptr %2, align 4
  br label %17

17:                                               ; preds = %11, %6
  %18 = load i32, ptr %2, align 4
  ret i32 %18
}