; Function Attrs: inlinehint nounwind sspstrong uwtable
define internal fastcc i32 @ROBJECT_IV_COUNT(i64 noundef %0) unnamed_addr #6 {
  %2 = tail call zeroext i1 @rb_shape_obj_too_complex(i64 noundef %0) #12
  %3 = inttoptr i64 %0 to ptr
  br i1 %2, label %4, label %9

4:                                                ; preds = %1
  %5 = getelementptr inbounds nuw i8, ptr %3, i64 16
  %6 = load ptr, ptr %5, align 8, !tbaa !34
  %7 = tail call i64 @rb_st_table_size(ptr noundef %6) #12
  %8 = trunc i64 %7 to i32
  br label %16

9:                                                ; preds = %1
  %10 = load i64, ptr %3, align 8, !tbaa !17
  %11 = lshr i64 %10, 32
  %12 = trunc nuw i64 %11 to i32
  %13 = tail call ptr @rb_shape_get_shape_by_id(i32 noundef %12) #12
  %14 = getelementptr inbounds nuw i8, ptr %13, i64 16
  %15 = load i32, ptr %14, align 8, !tbaa !93
  br label %16

16:                                               ; preds = %9, %4
  %.0 = phi i32 [ %8, %4 ], [ %15, %9 ]
  ret i32 %.0
}